target datalayout = "e-m:e-p270:32:32-p271:32:32-p272:64:64-i64:64-i128:128-f80:128-n8:16:32:64-S128"
target triple = "x86_64-pc-linux-gnu"

%struct.Kit_DsdNtk_t_ = type { i16, i16, i16, i16, ptr, ptr, ptr }

; Function Attrs: nounwind uwtable
define i32 @Kit_DsdNonDsdSizeMax(ptr noundef %0) #0 {
  %2 = alloca ptr, align 8
  %3 = alloca ptr, align 8
  %4 = alloca i32, align 4
  %5 = alloca i32, align 4
  store ptr %0, ptr %2, align 8, !tbaa !37
  call void @llvm.lifetime.start.p0(i64 8, ptr %3) #9
  call void @llvm.lifetime.start.p0(i64 4, ptr %4) #9
  call void @llvm.lifetime.start.p0(i64 4, ptr %5) #9
  store i32 0, ptr %5, align 4, !tbaa !3
  store i32 0, ptr %4, align 4, !tbaa !3
  br label %6

6:                                                ; preds = %42, %1
  %7 = load i32, ptr %4, align 4, !tbaa !3
  %8 = load ptr, ptr %2, align 8, !tbaa !37
  %9 = getelementptr inbounds nuw %struct.Kit_DsdNtk_t_, ptr %8, i32 0, i32 2
  %10 = load i16, ptr %9, align 4, !tbaa !45
  %11 = zext i16 %10 to i32
  %12 = icmp ult i32 %7, %11
  br i1 %12, label %13, label %22

13:                                               ; preds = %6
  %14 = load ptr, ptr %2, align 8, !tbaa !37
  %15 = getelementptr inbounds nuw %struct.Kit_DsdNtk_t_, ptr %14, i32 0, i32 6
  %16 = load ptr, ptr %15, align 8, !tbaa !47
  %17 = load i32, ptr %4, align 4, !tbaa !3
  %18 = zext i32 %17 to i64
  %19 = getelementptr inbounds nuw ptr, ptr %16, i64 %18
  %20 = load ptr, ptr %19, align 8, !tbaa !39
  store ptr %20, ptr %3, align 8, !tbaa !39
  %21 = icmp ne ptr %20, null
  br label %22

22:                                               ; preds = %13, %6
  %23 = phi i1 [ false, %6 ], [ %21, %13 ]
  br i1 %23, label %24, label %45

24:                                               ; preds = %22
  %25 = load ptr, ptr %3, align 8, !tbaa !39
  %26 = load i32, ptr %25, align 4
  %27 = lshr i32 %26, 6
  %28 = and i32 %27, 7
  %29 = icmp ne i32 %28, 5
  br i1 %29, label %30, label %31

30:                                               ; preds = %24
  br label %42

31:                                               ; preds = %24
  %32 = load i32, ptr %5, align 4, !tbaa !3
  %33 = load ptr, ptr %3, align 8, !tbaa !39
  %34 = load i32, ptr %33, align 4
  %35 = lshr i32 %34, 26
  %36 = icmp ult i32 %32, %35
  br i1 %36, label %37, label %41

37:                                               ; preds = %31
  %38 = load ptr, ptr %3, align 8, !tbaa !39
  %39 = load i32, ptr %38, align 4
  %40 = lshr i32 %39, 26
  store i32 %40, ptr %5, align 4, !tbaa !3
  br label %41

41:                                               ; preds = %37, %31
  br label %42

42:                                               ; preds = %41, %30
  %43 = load i32, ptr %4, align 4, !tbaa !3
  %44 = add i32 %43, 1
  store i32 %44, ptr %4, align 4, !tbaa !3
  br label %6, !llvm.loop !97

45:                                               ; preds = %22
  %46 = load i32, ptr %5, align 4, !tbaa !3
  call void @llvm.lifetime.end.p0(i64 4, ptr %5) #9
  call void @llvm.lifetime.end.p0(i64 4, ptr %4) #9
  call void @llvm.lifetime.end.p0(i64 8, ptr %3) #9
  ret i32 %46
}