; Function Attrs: nofree norecurse nosync nounwind memory(read, inaccessiblemem: none) uwtable
define range(i32 0, 64) i32 @Kit_DsdNonDsdSizeMax(ptr noundef readonly captures(none) %0) local_unnamed_addr #16 {
  %2 = getelementptr inbounds nuw i8, ptr %0, i64 4
  %3 = load i16, ptr %2, align 4, !tbaa !38
  %.not17 = icmp eq i16 %3, 0
  br i1 %.not17, label %.critedge, label %.lr.ph

.lr.ph:                                           ; preds = %1
  %4 = getelementptr inbounds nuw i8, ptr %0, i64 24
  %5 = load ptr, ptr %4, align 8, !tbaa !40
  %wide.trip.count = zext i16 %3 to i64
  br label %6

6:                                                ; preds = %.lr.ph, %9
  %indvars.iv = phi i64 [ 0, %.lr.ph ], [ %indvars.iv.next, %9 ]
  %.014 = phi i32 [ 0, %.lr.ph ], [ %.1, %9 ]
  %7 = getelementptr inbounds nuw ptr, ptr %5, i64 %indvars.iv
  %8 = load ptr, ptr %7, align 8, !tbaa !41
  %.not = icmp eq ptr %8, null
  br i1 %.not, label %.critedge, label %9

9:                                                ; preds = %6
  %10 = load i32, ptr %8, align 4
  %11 = and i32 %10, 448
  %.not12 = icmp eq i32 %11, 320
  %12 = lshr i32 %10, 26
  %spec.select = tail call i32 @llvm.umax.i32(i32 %.014, i32 %12)
  %.1 = select i1 %.not12, i32 %spec.select, i32 %.014
  %indvars.iv.next = add nuw nsw i64 %indvars.iv, 1
  %exitcond.not = icmp eq i64 %indvars.iv.next, %wide.trip.count
  br i1 %exitcond.not, label %.critedge, label %6, !llvm.loop !88

.critedge:                                        ; preds = %6, %9, %1
  %.0.lcssa = phi i32 [ 0, %1 ], [ %.1, %9 ], [ %.014, %6 ]
  ret i32 %.0.lcssa
}